; ModuleID = '17/736.c'
source_filename = "17/736.c"
target datalayout = "e-m:e-p270:32:32-p271:32:32-p272:64:64-i64:64-f80:128-n8:16:32:64-S128"
target triple = "x86_64-pc-linux-gnu"

@.str = private unnamed_addr constant [3 x i8] c"%s\00", align 1
@.str.1 = private unnamed_addr constant [3 x i8] c"%c\00", align 1
@.str.2 = private unnamed_addr constant [2 x i8] c"\0A\00", align 1

; Function Attrs: noinline nounwind uwtable
define dso_local void @main() #0 {
  %1 = alloca [110 x i8], align 16
  %2 = alloca i32, align 4
  %3 = alloca i32, align 4
  %4 = alloca i32, align 4
  %5 = alloca i32, align 4
  store i32 0, i32* %5, align 4
  br label %6

6:                                                ; preds = %123, %0
  %7 = getelementptr inbounds [110 x i8], [110 x i8]* %1, i64 0, i64 0
  %8 = call i32 (i8*, ...) @__isoc99_scanf(i8* getelementptr inbounds ([3 x i8], [3 x i8]* @.str, i64 0, i64 0), i8* %7)
  %9 = icmp ne i32 %8, -1
  br i1 %9, label %10, label %125

10:                                               ; preds = %6
  %11 = getelementptr inbounds [110 x i8], [110 x i8]* %1, i64 0, i64 0
  %12 = call i64 @strlen(i8* %11) #3
  %13 = trunc i64 %12 to i32
  store i32 %13, i32* %4, align 4
  store i32 0, i32* %2, align 4
  br label %14

14:                                               ; preds = %25, %10
  %15 = load i32, i32* %2, align 4
  %16 = load i32, i32* %4, align 4
  %17 = icmp slt i32 %15, %16
  br i1 %17, label %18, label %28

18:                                               ; preds = %14
  %19 = load i32, i32* %2, align 4
  %20 = sext i32 %19 to i64
  %21 = getelementptr inbounds [110 x i8], [110 x i8]* %1, i64 0, i64 %20
  %22 = load i8, i8* %21, align 1
  %23 = sext i8 %22 to i32
  %24 = call i32 (i8*, ...) @printf(i8* getelementptr inbounds ([3 x i8], [3 x i8]* @.str.1, i64 0, i64 0), i32 %23)
  br label %25

25:                                               ; preds = %18
  %26 = load i32, i32* %2, align 4
  %27 = add nsw i32 %26, 1
  store i32 %27, i32* %2, align 4
  br label %14

28:                                               ; preds = %14
  %29 = call i32 (i8*, ...) @printf(i8* getelementptr inbounds ([2 x i8], [2 x i8]* @.str.2, i64 0, i64 0))
  %30 = load i32, i32* %4, align 4
  %31 = sub nsw i32 %30, 1
  store i32 %31, i32* %2, align 4
  br label %32

32:                                               ; preds = %69, %28
  %33 = load i32, i32* %2, align 4
  %34 = icmp sge i32 %33, 0
  br i1 %34, label %35, label %72

35:                                               ; preds = %32
  %36 = load i32, i32* %2, align 4
  %37 = sext i32 %36 to i64
  %38 = getelementptr inbounds [110 x i8], [110 x i8]* %1, i64 0, i64 %37
  %39 = load i8, i8* %38, align 1
  %40 = sext i8 %39 to i32
  %41 = icmp eq i32 %40, 40
  br i1 %41, label %42, label %68

42:                                               ; preds = %35
  %43 = load i32, i32* %2, align 4
  %44 = add nsw i32 %43, 1
  store i32 %44, i32* %3, align 4
  br label %45

45:                                               ; preds = %64, %42
  %46 = load i32, i32* %3, align 4
  %47 = load i32, i32* %4, align 4
  %48 = icmp slt i32 %46, %47
  br i1 %48, label %49, label %67

49:                                               ; preds = %45
  %50 = load i32, i32* %3, align 4
  %51 = sext i32 %50 to i64
  %52 = getelementptr inbounds [110 x i8], [110 x i8]* %1, i64 0, i64 %51
  %53 = load i8, i8* %52, align 1
  %54 = sext i8 %53 to i32
  %55 = icmp eq i32 %54, 41
  br i1 %55, label %56, label %63

56:                                               ; preds = %49
  %57 = load i32, i32* %2, align 4
  %58 = sext i32 %57 to i64
  %59 = getelementptr inbounds [110 x i8], [110 x i8]* %1, i64 0, i64 %58
  store i8 97, i8* %59, align 1
  %60 = load i32, i32* %3, align 4
  %61 = sext i32 %60 to i64
  %62 = getelementptr inbounds [110 x i8], [110 x i8]* %1, i64 0, i64 %61
  store i8 97, i8* %62, align 1
  br label %67

63:                                               ; preds = %49
  br label %64

64:                                               ; preds = %63
  %65 = load i32, i32* %3, align 4
  %66 = add nsw i32 %65, 1
  store i32 %66, i32* %3, align 4
  br label %45

67:                                               ; preds = %56, %45
  br label %68

68:                                               ; preds = %67, %35
  br label %69

69:                                               ; preds = %68
  %70 = load i32, i32* %2, align 4
  %71 = add nsw i32 %70, -1
  store i32 %71, i32* %2, align 4
  br label %32

72:                                               ; preds = %32
  store i32 0, i32* %2, align 4
  br label %73

73:                                               ; preds = %105, %72
  %74 = load i32, i32* %2, align 4
  %75 = load i32, i32* %4, align 4
  %76 = icmp slt i32 %74, %75
  br i1 %76, label %77, label %108

77:                                               ; preds = %73
  %78 = load i32, i32* %2, align 4
  %79 = sext i32 %78 to i64
  %80 = getelementptr inbounds [110 x i8], [110 x i8]* %1, i64 0, i64 %79
  %81 = load i8, i8* %80, align 1
  %82 = sext i8 %81 to i32
  %83 = icmp eq i32 %82, 40
  br i1 %83, label %84, label %88

84:                                               ; preds = %77
  %85 = load i32, i32* %2, align 4
  %86 = sext i32 %85 to i64
  %87 = getelementptr inbounds [110 x i8], [110 x i8]* %1, i64 0, i64 %86
  store i8 36, i8* %87, align 1
  br label %104

88:                                               ; preds = %77
  %89 = load i32, i32* %2, align 4
  %90 = sext i32 %89 to i64
  %91 = getelementptr inbounds [110 x i8], [110 x i8]* %1, i64 0, i64 %90
  %92 = load i8, i8* %91, align 1
  %93 = sext i8 %92 to i32
  %94 = icmp eq i32 %93, 41
  br i1 %94, label %95, label %99

95:                                               ; preds = %88
  %96 = load i32, i32* %2, align 4
  %97 = sext i32 %96 to i64
  %98 = getelementptr inbounds [110 x i8], [110 x i8]* %1, i64 0, i64 %97
  store i8 63, i8* %98, align 1
  br label %103

99:                                               ; preds = %88
  %100 = load i32, i32* %2, align 4
  %101 = sext i32 %100 to i64
  %102 = getelementptr inbounds [110 x i8], [110 x i8]* %1, i64 0, i64 %101
  store i8 32, i8* %102, align 1
  br label %103

103:                                              ; preds = %99, %95
  br label %104

104:                                              ; preds = %103, %84
  br label %105

105:                                              ; preds = %104
  %106 = load i32, i32* %2, align 4
  %107 = add nsw i32 %106, 1
  store i32 %107, i32* %2, align 4
  br label %73

108:                                              ; preds = %73
  store i32 0, i32* %2, align 4
  br label %109

109:                                              ; preds = %120, %108
  %110 = load i32, i32* %2, align 4
  %111 = load i32, i32* %4, align 4
  %112 = icmp slt i32 %110, %111
  br i1 %112, label %113, label %123

113:                                              ; preds = %109
  %114 = load i32, i32* %2, align 4
  %115 = sext i32 %114 to i64
  %116 = getelementptr inbounds [110 x i8], [110 x i8]* %1, i64 0, i64 %115
  %117 = load i8, i8* %116, align 1
  %118 = sext i8 %117 to i32
  %119 = call i32 (i8*, ...) @printf(i8* getelementptr inbounds ([3 x i8], [3 x i8]* @.str.1, i64 0, i64 0), i32 %118)
  br label %120

120:                                              ; preds = %113
  %121 = load i32, i32* %2, align 4
  %122 = add nsw i32 %121, 1
  store i32 %122, i32* %2, align 4
  br label %109

123:                                              ; preds = %109
  %124 = call i32 (i8*, ...) @printf(i8* getelementptr inbounds ([2 x i8], [2 x i8]* @.str.2, i64 0, i64 0))
  br label %6

125:                                              ; preds = %6
  ret void
}

declare dso_local i32 @__isoc99_scanf(i8*, ...) #1

; Function Attrs: nounwind readonly
declare dso_local i64 @strlen(i8*) #2

declare dso_local i32 @printf(i8*, ...) #1


!llvm.module.flags = !{!0}
!llvm.ident = !{!1}

!0 = !{i32 1, !"wchar_size", i32 4}
!1 = !{!"clang version 10.0.0-4ubuntu1 "}
